target datalayout = "e-m:e-p270:32:32-p271:32:32-p272:64:64-i64:64-i128:128-f80:128-n8:16:32:64-S128"
target triple = "x86_64-pc-linux-gnu"

; Function Attrs: nounwind uwtable
define internal void @pad_block_float(ptr noundef %0, i64 noundef %1, i64 noundef %2) #0 {
  %4 = alloca ptr, align 8
  %5 = alloca i64, align 8
  %6 = alloca i64, align 8
  store ptr %0, ptr %4, align 8, !tbaa !8
  store i64 %1, ptr %5, align 8, !tbaa !25
  store i64 %2, ptr %6, align 8, !tbaa !25
  %7 = load i64, ptr %5, align 8, !tbaa !25
  switch i64 %7, label %43 [
    i64 0, label %8
    i64 1, label %13
    i64 2, label %23
    i64 3, label %33
  ]

8:                                                ; preds = %3
  %9 = load ptr, ptr %4, align 8, !tbaa !8
  %10 = load i64, ptr %6, align 8, !tbaa !25
  %11 = mul nsw i64 0, %10
  %12 = getelementptr inbounds float, ptr %9, i64 %11
  store float 0.000000e+00, ptr %12, align 4, !tbaa !20
  br label %13

13:                                               ; preds = %3, %8
  %14 = load ptr, ptr %4, align 8, !tbaa !8
  %15 = load i64, ptr %6, align 8, !tbaa !25
  %16 = mul nsw i64 0, %15
  %17 = getelementptr inbounds float, ptr %14, i64 %16
  %18 = load float, ptr %17, align 4, !tbaa !20
  %19 = load ptr, ptr %4, align 8, !tbaa !8
  %20 = load i64, ptr %6, align 8, !tbaa !25
  %21 = mul nsw i64 1, %20
  %22 = getelementptr inbounds float, ptr %19, i64 %21
  store float %18, ptr %22, align 4, !tbaa !20
  br label %23

23:                                               ; preds = %3, %13
  %24 = load ptr, ptr %4, align 8, !tbaa !8
  %25 = load i64, ptr %6, align 8, !tbaa !25
  %26 = mul nsw i64 1, %25
  %27 = getelementptr inbounds float, ptr %24, i64 %26
  %28 = load float, ptr %27, align 4, !tbaa !20
  %29 = load ptr, ptr %4, align 8, !tbaa !8
  %30 = load i64, ptr %6, align 8, !tbaa !25
  %31 = mul nsw i64 2, %30
  %32 = getelementptr inbounds float, ptr %29, i64 %31
  store float %28, ptr %32, align 4, !tbaa !20
  br label %33

33:                                               ; preds = %3, %23
  %34 = load ptr, ptr %4, align 8, !tbaa !8
  %35 = load i64, ptr %6, align 8, !tbaa !25
  %36 = mul nsw i64 0, %35
  %37 = getelementptr inbounds float, ptr %34, i64 %36
  %38 = load float, ptr %37, align 4, !tbaa !20
  %39 = load ptr, ptr %4, align 8, !tbaa !8
  %40 = load i64, ptr %6, align 8, !tbaa !25
  %41 = mul nsw i64 3, %40
  %42 = getelementptr inbounds float, ptr %39, i64 %41
  store float %38, ptr %42, align 4, !tbaa !20
  br label %43

43:                                               ; preds = %3, %33
  br label %44

44:                                               ; preds = %43
  ret void
}

; Function Attrs: nounwind uwtable
define internal void @gather_partial_float_3(ptr noundef %0, ptr noundef %1, i64 noundef %2, i64 noundef %3, i64 noundef %4, i64 noundef %5, i64 noundef %6, i64 noundef %7) #0 {
  %9 = alloca ptr, align 8
  %10 = alloca ptr, align 8
  %11 = alloca i64, align 8
  %12 = alloca i64, align 8
  %13 = alloca i64, align 8
  %14 = alloca i64, align 8
  %15 = alloca i64, align 8
  %16 = alloca i64, align 8
  %17 = alloca i64, align 8
  %18 = alloca i64, align 8
  %19 = alloca i64, align 8
  store ptr %0, ptr %9, align 8, !tbaa !8
  store ptr %1, ptr %10, align 8, !tbaa !8
  store i64 %2, ptr %11, align 8, !tbaa !25
  store i64 %3, ptr %12, align 8, !tbaa !25
  store i64 %4, ptr %13, align 8, !tbaa !25
  store i64 %5, ptr %14, align 8, !tbaa !25
  store i64 %6, ptr %15, align 8, !tbaa !25
  store i64 %7, ptr %16, align 8, !tbaa !25
  call void @llvm.lifetime.start.p0(i64 8, ptr %17) #7
  call void @llvm.lifetime.start.p0(i64 8, ptr %18) #7
  call void @llvm.lifetime.start.p0(i64 8, ptr %19) #7
  store i64 0, ptr %19, align 8, !tbaa !25
  br label %20

20:                                               ; preds = %87, %8
  %21 = load i64, ptr %19, align 8, !tbaa !25
  %22 = load i64, ptr %13, align 8, !tbaa !25
  %23 = icmp ult i64 %21, %22
  br i1 %23, label %24, label %97

24:                                               ; preds = %20
  store i64 0, ptr %18, align 8, !tbaa !25
  br label %25

25:                                               ; preds = %61, %24
  %26 = load i64, ptr %18, align 8, !tbaa !25
  %27 = load i64, ptr %12, align 8, !tbaa !25
  %28 = icmp ult i64 %26, %27
  br i1 %28, label %29, label %71

29:                                               ; preds = %25
  store i64 0, ptr %17, align 8, !tbaa !25
  br label %30

30:                                               ; preds = %46, %29
  %31 = load i64, ptr %17, align 8, !tbaa !25
  %32 = load i64, ptr %11, align 8, !tbaa !25
  %33 = icmp ult i64 %31, %32
  br i1 %33, label %34, label %52

34:                                               ; preds = %30
  %35 = load ptr, ptr %10, align 8, !tbaa !8
  %36 = load float, ptr %35, align 4, !tbaa !20
  %37 = load ptr, ptr %9, align 8, !tbaa !8
  %38 = load i64, ptr %19, align 8, !tbaa !25
  %39 = mul i64 16, %38
  %40 = load i64, ptr %18, align 8, !tbaa !25
  %41 = mul i64 4, %40
  %42 = add i64 %39, %41
  %43 = load i64, ptr %17, align 8, !tbaa !25
  %44 = add i64 %42, %43
  %45 = getelementptr inbounds nuw float, ptr %37, i64 %44
  store float %36, ptr %45, align 4, !tbaa !20
  br label %46

46:                                               ; preds = %34
  %47 = load i64, ptr %17, align 8, !tbaa !25
  %48 = add i64 %47, 1
  store i64 %48, ptr %17, align 8, !tbaa !25
  %49 = load i64, ptr %14, align 8, !tbaa !25
  %50 = load ptr, ptr %10, align 8, !tbaa !8
  %51 = getelementptr inbounds float, ptr %50, i64 %49
  store ptr %51, ptr %10, align 8, !tbaa !8
  br label %30

52:                                               ; preds = %30
  %53 = load ptr, ptr %9, align 8, !tbaa !8
  %54 = load i64, ptr %19, align 8, !tbaa !25
  %55 = mul i64 16, %54
  %56 = getelementptr inbounds nuw float, ptr %53, i64 %55
  %57 = load i64, ptr %18, align 8, !tbaa !25
  %58 = mul i64 4, %57
  %59 = getelementptr inbounds nuw float, ptr %56, i64 %58
  %60 = load i64, ptr %11, align 8, !tbaa !25
  call void @pad_block_float(ptr noundef %59, i64 noundef %60, i64 noundef 1)
  br label %61

61:                                               ; preds = %52
  %62 = load i64, ptr %18, align 8, !tbaa !25
  %63 = add i64 %62, 1
  store i64 %63, ptr %18, align 8, !tbaa !25
  %64 = load i64, ptr %15, align 8, !tbaa !25
  %65 = load i64, ptr %11, align 8, !tbaa !25
  %66 = load i64, ptr %14, align 8, !tbaa !25
  %67 = mul nsw i64 %65, %66
  %68 = sub nsw i64 %64, %67
  %69 = load ptr, ptr %10, align 8, !tbaa !8
  %70 = getelementptr inbounds float, ptr %69, i64 %68
  store ptr %70, ptr %10, align 8, !tbaa !8
  br label %25

71:                                               ; preds = %25
  store i64 0, ptr %17, align 8, !tbaa !25
  br label %72

72:                                               ; preds = %83, %71
  %73 = load i64, ptr %17, align 8, !tbaa !25
  %74 = icmp ult i64 %73, 4
  br i1 %74, label %75, label %86

75:                                               ; preds = %72
  %76 = load ptr, ptr %9, align 8, !tbaa !8
  %77 = load i64, ptr %19, align 8, !tbaa !25
  %78 = mul i64 16, %77
  %79 = getelementptr inbounds nuw float, ptr %76, i64 %78
  %80 = load i64, ptr %17, align 8, !tbaa !25
  %81 = getelementptr inbounds nuw float, ptr %79, i64 %80
  %82 = load i64, ptr %12, align 8, !tbaa !25
  call void @pad_block_float(ptr noundef %81, i64 noundef %82, i64 noundef 4)
  br label %83

83:                                               ; preds = %75
  %84 = load i64, ptr %17, align 8, !tbaa !25
  %85 = add i64 %84, 1
  store i64 %85, ptr %17, align 8, !tbaa !25
  br label %72

86:                                               ; preds = %72
  br label %87

87:                                               ; preds = %86
  %88 = load i64, ptr %19, align 8, !tbaa !25
  %89 = add i64 %88, 1
  store i64 %89, ptr %19, align 8, !tbaa !25
  %90 = load i64, ptr %16, align 8, !tbaa !25
  %91 = load i64, ptr %12, align 8, !tbaa !25
  %92 = load i64, ptr %15, align 8, !tbaa !25
  %93 = mul nsw i64 %91, %92
  %94 = sub nsw i64 %90, %93
  %95 = load ptr, ptr %10, align 8, !tbaa !8
  %96 = getelementptr inbounds float, ptr %95, i64 %94
  store ptr %96, ptr %10, align 8, !tbaa !8
  br label %20

97:                                               ; preds = %20
  store i64 0, ptr %18, align 8, !tbaa !25
  br label %98

98:                                               ; preds = %117, %97
  %99 = load i64, ptr %18, align 8, !tbaa !25
  %100 = icmp ult i64 %99, 4
  br i1 %100, label %101, label %120

101:                                              ; preds = %98
  store i64 0, ptr %17, align 8, !tbaa !25
  br label %102

102:                                              ; preds = %113, %101
  %103 = load i64, ptr %17, align 8, !tbaa !25
  %104 = icmp ult i64 %103, 4
  br i1 %104, label %105, label %116

105:                                              ; preds = %102
  %106 = load ptr, ptr %9, align 8, !tbaa !8
  %107 = load i64, ptr %18, align 8, !tbaa !25
  %108 = mul i64 4, %107
  %109 = getelementptr inbounds nuw float, ptr %106, i64 %108
  %110 = load i64, ptr %17, align 8, !tbaa !25
  %111 = getelementptr inbounds nuw float, ptr %109, i64 %110
  %112 = load i64, ptr %13, align 8, !tbaa !25
  call void @pad_block_float(ptr noundef %111, i64 noundef %112, i64 noundef 16)
  br label %113

113:                                              ; preds = %105
  %114 = load i64, ptr %17, align 8, !tbaa !25
  %115 = add i64 %114, 1
  store i64 %115, ptr %17, align 8, !tbaa !25
  br label %102

116:                                              ; preds = %102
  br label %117

117:                                              ; preds = %116
  %118 = load i64, ptr %18, align 8, !tbaa !25
  %119 = add i64 %118, 1
  store i64 %119, ptr %18, align 8, !tbaa !25
  br label %98

120:                                              ; preds = %98
  call void @llvm.lifetime.end.p0(i64 8, ptr %19) #7
  call void @llvm.lifetime.end.p0(i64 8, ptr %18) #7
  call void @llvm.lifetime.end.p0(i64 8, ptr %17) #7
  ret void
}

; Function Attrs: nounwind uwtable
define i64 @zfp_encode_partial_block_strided_float_3(ptr noundef %0, ptr noundef %1, i64 noundef %2, i64 noundef %3, i64 noundef %4, i64 noundef %5, i64 noundef %6, i64 noundef %7) #0 {
  %9 = alloca ptr, align 8
  %10 = alloca ptr, align 8
  %11 = alloca i64, align 8
  %12 = alloca i64, align 8
  %13 = alloca i64, align 8
  %14 = alloca i64, align 8
  %15 = alloca i64, align 8
  %16 = alloca i64, align 8
  %17 = alloca [64 x float], align 256
  store ptr %0, ptr %9, align 8, !tbaa !4
  store ptr %1, ptr %10, align 8, !tbaa !8
  store i64 %2, ptr %11, align 8, !tbaa !25
  store i64 %3, ptr %12, align 8, !tbaa !25
  store i64 %4, ptr %13, align 8, !tbaa !25
  store i64 %5, ptr %14, align 8, !tbaa !25
  store i64 %6, ptr %15, align 8, !tbaa !25
  store i64 %7, ptr %16, align 8, !tbaa !25
  call void @llvm.lifetime.start.p0(i64 256, ptr %17) #7
  %18 = getelementptr inbounds [64 x float], ptr %17, i64 0, i64 0
  %19 = load ptr, ptr %10, align 8, !tbaa !8
  %20 = load i64, ptr %11, align 8, !tbaa !25
  %21 = load i64, ptr %12, align 8, !tbaa !25
  %22 = load i64, ptr %13, align 8, !tbaa !25
  %23 = load i64, ptr %14, align 8, !tbaa !25
  %24 = load i64, ptr %15, align 8, !tbaa !25
  %25 = load i64, ptr %16, align 8, !tbaa !25
  call void @gather_partial_float_3(ptr noundef %18, ptr noundef %19, i64 noundef %20, i64 noundef %21, i64 noundef %22, i64 noundef %23, i64 noundef %24, i64 noundef %25)
  %26 = load ptr, ptr %9, align 8, !tbaa !4
  %27 = getelementptr inbounds [64 x float], ptr %17, i64 0, i64 0
  %28 = call i64 @zfp_encode_block_float_3(ptr noundef %26, ptr noundef %27)
  call void @llvm.lifetime.end.p0(i64 256, ptr %17) #7
  ret i64 %28
}